target datalayout = "e-m:e-p270:32:32-p271:32:32-p272:64:64-i64:64-i128:128-f80:128-n8:16:32:64-S128"
target triple = "x86_64-pc-linux-gnu"

%struct._object = type { %union.anon, ptr }
%union.anon = type { i64 }
%struct.PyVarObject = type { %struct._object, i64 }
%struct._typeobject = type { %struct.PyVarObject, ptr, i64, i64, ptr, i64, ptr, ptr, ptr, ptr, ptr, ptr, ptr, ptr, ptr, ptr, ptr, ptr, ptr, i64, ptr, ptr, ptr, ptr, i64, ptr, ptr, ptr, ptr, ptr, ptr, ptr, ptr, ptr, i64, ptr, ptr, ptr, ptr, ptr, ptr, ptr, ptr, ptr, ptr, ptr, i32, ptr, ptr, i8, i16 }
%struct.Py_buffer = type { ptr, ptr, i64, i64, i32, i32, ptr, ptr, ptr, ptr, ptr }

@.str.29 = private unnamed_addr constant [26 x i8] c"raw_unicode_escape_decode\00", align 1
@_Py_NoneStruct = external global %struct._object, align 8
@PyExc_ValueError = external global ptr, align 8
@.str.44 = private unnamed_addr constant [24 x i8] c"embedded null character\00", align 1
@.str.52 = private unnamed_addr constant [11 x i8] c"argument 2\00", align 1
@.str.53 = private unnamed_addr constant [12 x i8] c"str or None\00", align 1
@.str.55 = private unnamed_addr constant [3 x i8] c"Nn\00", align 1

; Function Attrs: nounwind uwtable
define internal ptr @codec_tuple(ptr noundef %0, i64 noundef %1) #0 {
  %3 = alloca ptr, align 8
  %4 = alloca ptr, align 8
  %5 = alloca i64, align 8
  store ptr %0, ptr %4, align 8, !tbaa !4
  store i64 %1, ptr %5, align 8, !tbaa !11
  %6 = load ptr, ptr %4, align 8, !tbaa !4
  %7 = icmp eq ptr %6, null
  br i1 %7, label %8, label %9

8:                                                ; preds = %2
  store ptr null, ptr %3, align 8
  br label %13

9:                                                ; preds = %2
  %10 = load ptr, ptr %4, align 8, !tbaa !4
  %11 = load i64, ptr %5, align 8, !tbaa !11
  %12 = call ptr (ptr, ...) @Py_BuildValue(ptr noundef @.str.55, ptr noundef %10, i64 noundef %11)
  store ptr %12, ptr %3, align 8
  br label %13

13:                                               ; preds = %9, %8
  %14 = load ptr, ptr %3, align 8
  ret ptr %14
}

; Function Attrs: nounwind uwtable
define internal ptr @_codecs_raw_unicode_escape_decode_impl(ptr noundef %0, ptr noundef %1, ptr noundef %2, i32 noundef %3) #0 {
  %5 = alloca ptr, align 8
  %6 = alloca ptr, align 8
  %7 = alloca ptr, align 8
  %8 = alloca i32, align 4
  %9 = alloca i64, align 8
  %10 = alloca ptr, align 8
  store ptr %0, ptr %5, align 8, !tbaa !4
  store ptr %1, ptr %6, align 8, !tbaa !31
  store ptr %2, ptr %7, align 8, !tbaa !9
  store i32 %3, ptr %8, align 4, !tbaa !19
  call void @llvm.lifetime.start.p0(i64 8, ptr %9) #6
  %11 = load ptr, ptr %6, align 8, !tbaa !31
  %12 = getelementptr inbounds nuw %struct.Py_buffer, ptr %11, i32 0, i32 2
  %13 = load i64, ptr %12, align 8, !tbaa !37
  store i64 %13, ptr %9, align 8, !tbaa !11
  call void @llvm.lifetime.start.p0(i64 8, ptr %10) #6
  %14 = load ptr, ptr %6, align 8, !tbaa !31
  %15 = getelementptr inbounds nuw %struct.Py_buffer, ptr %14, i32 0, i32 0
  %16 = load ptr, ptr %15, align 8, !tbaa !36
  %17 = load ptr, ptr %6, align 8, !tbaa !31
  %18 = getelementptr inbounds nuw %struct.Py_buffer, ptr %17, i32 0, i32 2
  %19 = load i64, ptr %18, align 8, !tbaa !37
  %20 = load ptr, ptr %7, align 8, !tbaa !9
  %21 = load i32, ptr %8, align 4, !tbaa !19
  %22 = icmp ne i32 %21, 0
  br i1 %22, label %23, label %24

23:                                               ; preds = %4
  br label %25

24:                                               ; preds = %4
  br label %25

25:                                               ; preds = %24, %23
  %26 = phi ptr [ null, %23 ], [ %9, %24 ]
  %27 = call ptr @_PyUnicode_DecodeRawUnicodeEscapeStateful(ptr noundef %16, i64 noundef %19, ptr noundef %20, ptr noundef %26)
  store ptr %27, ptr %10, align 8, !tbaa !4
  %28 = load ptr, ptr %10, align 8, !tbaa !4
  %29 = load i64, ptr %9, align 8, !tbaa !11
  %30 = call ptr @codec_tuple(ptr noundef %28, i64 noundef %29)
  call void @llvm.lifetime.end.p0(i64 8, ptr %10) #6
  call void @llvm.lifetime.end.p0(i64 8, ptr %9) #6
  ret ptr %30
}

; Function Attrs: inlinehint nounwind uwtable
define internal i32 @PyType_HasFeature(ptr noundef %0, i64 noundef %1) #3 {
  %3 = alloca ptr, align 8
  %4 = alloca i64, align 8
  %5 = alloca i64, align 8
  store ptr %0, ptr %3, align 8, !tbaa !20
  store i64 %1, ptr %4, align 8, !tbaa !11
  call void @llvm.lifetime.start.p0(i64 8, ptr %5) #6
  %6 = load ptr, ptr %3, align 8, !tbaa !20
  %7 = getelementptr inbounds nuw %struct._typeobject, ptr %6, i32 0, i32 19
  %8 = load i64, ptr %7, align 8, !tbaa !22
  store i64 %8, ptr %5, align 8, !tbaa !11
  %9 = load i64, ptr %5, align 8, !tbaa !11
  %10 = load i64, ptr %4, align 8, !tbaa !11
  %11 = and i64 %9, %10
  %12 = icmp ne i64 %11, 0
  %13 = zext i1 %12 to i32
  call void @llvm.lifetime.end.p0(i64 8, ptr %5) #6
  ret i32 %13
}

; Function Attrs: inlinehint nounwind uwtable
define internal ptr @_Py_TYPE(ptr noundef %0) #3 {
  %2 = alloca ptr, align 8
  store ptr %0, ptr %2, align 8, !tbaa !4
  %3 = load ptr, ptr %2, align 8, !tbaa !4
  %4 = getelementptr inbounds nuw %struct._object, ptr %3, i32 0, i32 1
  %5 = load ptr, ptr %4, align 8, !tbaa !30
  ret ptr %5
}

; Function Attrs: nounwind uwtable
define internal ptr @_codecs_raw_unicode_escape_decode(ptr noundef %0, ptr noundef %1, i64 noundef %2) #0 {
  %4 = alloca ptr, align 8
  %5 = alloca ptr, align 8
  %6 = alloca ptr, align 8
  %7 = alloca i64, align 8
  %8 = alloca ptr, align 8
  %9 = alloca %struct.Py_buffer, align 8
  %10 = alloca ptr, align 8
  %11 = alloca i32, align 4
  %12 = alloca i64, align 8
  %13 = alloca ptr, align 8
  %14 = alloca i32, align 4
  %15 = alloca i64, align 8
  store ptr %0, ptr %5, align 8, !tbaa !4
  store ptr %1, ptr %6, align 8, !tbaa !13
  store i64 %2, ptr %7, align 8, !tbaa !11
  call void @llvm.lifetime.start.p0(i64 8, ptr %8) #6
  store ptr null, ptr %8, align 8, !tbaa !4
  call void @llvm.lifetime.start.p0(i64 80, ptr %9) #6
  call void @llvm.memset.p0.i64(ptr align 8 %9, i8 0, i64 80, i1 false)
  call void @llvm.lifetime.start.p0(i64 8, ptr %10) #6
  store ptr null, ptr %10, align 8, !tbaa !9
  call void @llvm.lifetime.start.p0(i64 4, ptr %11) #6
  store i32 1, ptr %11, align 4, !tbaa !19
  %16 = load i64, ptr %7, align 8, !tbaa !11
  %17 = icmp sle i64 1, %16
  br i1 %17, label %18, label %21

18:                                               ; preds = %3
  %19 = load i64, ptr %7, align 8, !tbaa !11
  %20 = icmp sle i64 %19, 3
  br i1 %20, label %26, label %21

21:                                               ; preds = %18, %3
  %22 = load i64, ptr %7, align 8, !tbaa !11
  %23 = call i32 @_PyArg_CheckPositional(ptr noundef @.str.29, i64 noundef %22, i64 noundef 1, i64 noundef 3)
  %24 = icmp ne i32 %23, 0
  br i1 %24, label %26, label %25

25:                                               ; preds = %21
  br label %121

26:                                               ; preds = %21, %18
  %27 = load ptr, ptr %6, align 8, !tbaa !13
  %28 = getelementptr ptr, ptr %27, i64 0
  %29 = load ptr, ptr %28, align 8, !tbaa !4
  %30 = call ptr @_Py_TYPE(ptr noundef %29)
  %31 = call i32 @PyType_HasFeature(ptr noundef %30, i64 noundef 268435456)
  %32 = icmp ne i32 %31, 0
  br i1 %32, label %33, label %54

33:                                               ; preds = %26
  call void @llvm.lifetime.start.p0(i64 8, ptr %12) #6
  call void @llvm.lifetime.start.p0(i64 8, ptr %13) #6
  %34 = load ptr, ptr %6, align 8, !tbaa !13
  %35 = getelementptr ptr, ptr %34, i64 0
  %36 = load ptr, ptr %35, align 8, !tbaa !4
  %37 = call ptr @PyUnicode_AsUTF8AndSize(ptr noundef %36, ptr noundef %12)
  store ptr %37, ptr %13, align 8, !tbaa !9
  %38 = load ptr, ptr %13, align 8, !tbaa !9
  %39 = icmp eq ptr %38, null
  br i1 %39, label %40, label %41

40:                                               ; preds = %33
  store i32 2, ptr %14, align 4
  br label %51

41:                                               ; preds = %33
  %42 = load ptr, ptr %6, align 8, !tbaa !13
  %43 = getelementptr ptr, ptr %42, i64 0
  %44 = load ptr, ptr %43, align 8, !tbaa !4
  %45 = load ptr, ptr %13, align 8, !tbaa !9
  %46 = load i64, ptr %12, align 8, !tbaa !11
  %47 = call i32 @PyBuffer_FillInfo(ptr noundef %9, ptr noundef %44, ptr noundef %45, i64 noundef %46, i32 noundef 1, i32 noundef 0)
  %48 = icmp slt i32 %47, 0
  br i1 %48, label %49, label %50

49:                                               ; preds = %41
  store i32 2, ptr %14, align 4
  br label %51

50:                                               ; preds = %41
  store i32 0, ptr %14, align 4
  br label %51

51:                                               ; preds = %49, %40, %50
  call void @llvm.lifetime.end.p0(i64 8, ptr %13) #6
  call void @llvm.lifetime.end.p0(i64 8, ptr %12) #6
  %52 = load i32, ptr %14, align 4
  switch i32 %52, label %128 [
    i32 0, label %53
    i32 2, label %121
  ]

53:                                               ; preds = %51
  br label %62

54:                                               ; preds = %26
  %55 = load ptr, ptr %6, align 8, !tbaa !13
  %56 = getelementptr ptr, ptr %55, i64 0
  %57 = load ptr, ptr %56, align 8, !tbaa !4
  %58 = call i32 @PyObject_GetBuffer(ptr noundef %57, ptr noundef %9, i32 noundef 0)
  %59 = icmp ne i32 %58, 0
  br i1 %59, label %60, label %61

60:                                               ; preds = %54
  br label %121

61:                                               ; preds = %54
  br label %62

62:                                               ; preds = %61, %53
  %63 = load i64, ptr %7, align 8, !tbaa !11
  %64 = icmp slt i64 %63, 2
  br i1 %64, label %65, label %66

65:                                               ; preds = %62
  br label %116

66:                                               ; preds = %62
  %67 = load ptr, ptr %6, align 8, !tbaa !13
  %68 = getelementptr ptr, ptr %67, i64 1
  %69 = load ptr, ptr %68, align 8, !tbaa !4
  %70 = icmp eq ptr %69, @_Py_NoneStruct
  br i1 %70, label %71, label %72

71:                                               ; preds = %66
  store ptr null, ptr %10, align 8, !tbaa !9
  br label %103

72:                                               ; preds = %66
  %73 = load ptr, ptr %6, align 8, !tbaa !13
  %74 = getelementptr ptr, ptr %73, i64 1
  %75 = load ptr, ptr %74, align 8, !tbaa !4
  %76 = call ptr @_Py_TYPE(ptr noundef %75)
  %77 = call i32 @PyType_HasFeature(ptr noundef %76, i64 noundef 268435456)
  %78 = icmp ne i32 %77, 0
  br i1 %78, label %79, label %98

79:                                               ; preds = %72
  call void @llvm.lifetime.start.p0(i64 8, ptr %15) #6
  %80 = load ptr, ptr %6, align 8, !tbaa !13
  %81 = getelementptr ptr, ptr %80, i64 1
  %82 = load ptr, ptr %81, align 8, !tbaa !4
  %83 = call ptr @PyUnicode_AsUTF8AndSize(ptr noundef %82, ptr noundef %15)
  store ptr %83, ptr %10, align 8, !tbaa !9
  %84 = load ptr, ptr %10, align 8, !tbaa !9
  %85 = icmp eq ptr %84, null
  br i1 %85, label %86, label %87

86:                                               ; preds = %79
  store i32 2, ptr %14, align 4
  br label %95

87:                                               ; preds = %79
  %88 = load ptr, ptr %10, align 8, !tbaa !9
  %89 = call i64 @strlen(ptr noundef %88) #7
  %90 = load i64, ptr %15, align 8, !tbaa !11
  %91 = icmp ne i64 %89, %90
  br i1 %91, label %92, label %94

92:                                               ; preds = %87
  %93 = load ptr, ptr @PyExc_ValueError, align 8, !tbaa !4
  call void @PyErr_SetString(ptr noundef %93, ptr noundef @.str.44)
  store i32 2, ptr %14, align 4
  br label %95

94:                                               ; preds = %87
  store i32 0, ptr %14, align 4
  br label %95

95:                                               ; preds = %92, %86, %94
  call void @llvm.lifetime.end.p0(i64 8, ptr %15) #6
  %96 = load i32, ptr %14, align 4
  switch i32 %96, label %128 [
    i32 0, label %97
    i32 2, label %121
  ]

97:                                               ; preds = %95
  br label %102

98:                                               ; preds = %72
  %99 = load ptr, ptr %6, align 8, !tbaa !13
  %100 = getelementptr ptr, ptr %99, i64 1
  %101 = load ptr, ptr %100, align 8, !tbaa !4
  call void @_PyArg_BadArgument(ptr noundef @.str.29, ptr noundef @.str.52, ptr noundef @.str.53, ptr noundef %101)
  br label %121

102:                                              ; preds = %97
  br label %103

103:                                              ; preds = %102, %71
  %104 = load i64, ptr %7, align 8, !tbaa !11
  %105 = icmp slt i64 %104, 3
  br i1 %105, label %106, label %107

106:                                              ; preds = %103
  br label %116

107:                                              ; preds = %103
  %108 = load ptr, ptr %6, align 8, !tbaa !13
  %109 = getelementptr ptr, ptr %108, i64 2
  %110 = load ptr, ptr %109, align 8, !tbaa !4
  %111 = call i32 @PyObject_IsTrue(ptr noundef %110)
  store i32 %111, ptr %11, align 4, !tbaa !19
  %112 = load i32, ptr %11, align 4, !tbaa !19
  %113 = icmp slt i32 %112, 0
  br i1 %113, label %114, label %115

114:                                              ; preds = %107
  br label %121

115:                                              ; preds = %107
  br label %116

116:                                              ; preds = %115, %106, %65
  %117 = load ptr, ptr %5, align 8, !tbaa !4
  %118 = load ptr, ptr %10, align 8, !tbaa !9
  %119 = load i32, ptr %11, align 4, !tbaa !19
  %120 = call ptr @_codecs_raw_unicode_escape_decode_impl(ptr noundef %117, ptr noundef %9, ptr noundef %118, i32 noundef %119)
  store ptr %120, ptr %8, align 8, !tbaa !4
  br label %121

121:                                              ; preds = %116, %95, %51, %114, %98, %60, %25
  %122 = getelementptr inbounds nuw %struct.Py_buffer, ptr %9, i32 0, i32 1
  %123 = load ptr, ptr %122, align 8, !tbaa !15
  %124 = icmp ne ptr %123, null
  br i1 %124, label %125, label %126

125:                                              ; preds = %121
  call void @PyBuffer_Release(ptr noundef %9)
  br label %126

126:                                              ; preds = %125, %121
  %127 = load ptr, ptr %8, align 8, !tbaa !4
  store ptr %127, ptr %4, align 8
  store i32 1, ptr %14, align 4
  br label %128

128:                                              ; preds = %126, %95, %51
  call void @llvm.lifetime.end.p0(i64 4, ptr %11) #6
  call void @llvm.lifetime.end.p0(i64 8, ptr %10) #6
  call void @llvm.lifetime.end.p0(i64 80, ptr %9) #6
  call void @llvm.lifetime.end.p0(i64 8, ptr %8) #6
  %129 = load ptr, ptr %4, align 8
  ret ptr %129
}